target datalayout = "e-m:e-p270:32:32-p271:32:32-p272:64:64-i64:64-i128:128-f80:128-n8:16:32:64-S128"
target triple = "x86_64-pc-linux-gnu"

%struct.sharedObjectsStruct = type { ptr, ptr, ptr, ptr, ptr, ptr, ptr, ptr, [4 x ptr], [4 x ptr], [4 x ptr], [4 x ptr], ptr, ptr, ptr, ptr, ptr, ptr, ptr, ptr, ptr, ptr, ptr, ptr, ptr, ptr, ptr, ptr, ptr, ptr, ptr, ptr, ptr, ptr, ptr, ptr, ptr, ptr, ptr, ptr, ptr, ptr, ptr, ptr, ptr, ptr, ptr, ptr, ptr, ptr, ptr, ptr, ptr, ptr, ptr, ptr, ptr, ptr, ptr, ptr, ptr, ptr, ptr, ptr, ptr, ptr, ptr, ptr, ptr, ptr, ptr, ptr, ptr, ptr, ptr, ptr, ptr, ptr, ptr, ptr, ptr, ptr, ptr, ptr, ptr, ptr, ptr, ptr, [10 x ptr], [10000 x ptr], [32 x ptr], [32 x ptr], [32 x ptr], [32 x ptr], ptr, ptr }
%struct.client = type { i64, i64, ptr, i8, i8, i8, i8, i32, ptr, ptr, ptr, ptr, ptr, i64, i64, i32, ptr, i32, i32, ptr, i64, ptr, ptr, ptr, ptr, ptr, i32, i32, i64, ptr, i64, ptr, i64, i64, i64, i32, ptr, i64, i64, i32, i32, i32, i32, i64, i64, ptr, i64, i64, i64, i64, i64, i64, i64, i64, [41 x i8], i32, ptr, i32, i32, i64, %struct.multiState, %struct.blockingState, i64, ptr, ptr, ptr, ptr, ptr, ptr, ptr, ptr, ptr, ptr, ptr, ptr, ptr, ptr, i64, ptr, i64, i32, ptr, ptr, ptr, i64, %struct.listNode, i64, i64, i32, i64, ptr }
%struct.multiState = type { ptr, i32, i32, i32, i64, i32 }
%struct.blockingState = type { i32, i64, i32, ptr, i32, i32, i64, ptr, ptr, i64 }
%struct.listNode = type { ptr, ptr, ptr }

@shared = external global %struct.sharedObjectsStruct, align 8

; Function Attrs: nounwind uwtable
define dso_local void @zpopMinMaxCommand(ptr noundef %0, i32 noundef %1) #0 {
  %3 = alloca ptr, align 8
  %4 = alloca i32, align 4
  %5 = alloca i64, align 8
  %6 = alloca i32, align 4
  %7 = alloca i32, align 4
  store ptr %0, ptr %3, align 8, !tbaa !150
  store i32 %1, ptr %4, align 4, !tbaa !5
  %8 = load ptr, ptr %3, align 8, !tbaa !150
  %9 = getelementptr inbounds nuw %struct.client, ptr %8, i32 0, i32 15
  %10 = load i32, ptr %9, align 8, !tbaa !160
  %11 = icmp sgt i32 %10, 3
  br i1 %11, label %12, label %15

12:                                               ; preds = %2
  %13 = load ptr, ptr %3, align 8, !tbaa !150
  %14 = load ptr, ptr getelementptr inbounds nuw (%struct.sharedObjectsStruct, ptr @shared, i32 0, i32 15), align 8, !tbaa !162
  call void @addReplyErrorObject(ptr noundef %13, ptr noundef %14)
  br label %51

15:                                               ; preds = %2
  call void @llvm.lifetime.start.p0(i64 8, ptr %5) #12
  store i64 -1, ptr %5, align 8, !tbaa !31
  %16 = load ptr, ptr %3, align 8, !tbaa !150
  %17 = getelementptr inbounds nuw %struct.client, ptr %16, i32 0, i32 15
  %18 = load i32, ptr %17, align 8, !tbaa !160
  %19 = icmp eq i32 %18, 3
  br i1 %19, label %20, label %30

20:                                               ; preds = %15
  %21 = load ptr, ptr %3, align 8, !tbaa !150
  %22 = load ptr, ptr %3, align 8, !tbaa !150
  %23 = getelementptr inbounds nuw %struct.client, ptr %22, i32 0, i32 16
  %24 = load ptr, ptr %23, align 8, !tbaa !151
  %25 = getelementptr inbounds ptr, ptr %24, i64 2
  %26 = load ptr, ptr %25, align 8, !tbaa !78
  %27 = call i32 @getPositiveLongFromObjectOrReply(ptr noundef %21, ptr noundef %26, ptr noundef %5, ptr noundef null)
  %28 = icmp ne i32 %27, 0
  br i1 %28, label %29, label %30

29:                                               ; preds = %20
  store i32 1, ptr %6, align 4
  br label %49

30:                                               ; preds = %20, %15
  call void @llvm.lifetime.start.p0(i64 4, ptr %7) #12
  %31 = load ptr, ptr %3, align 8, !tbaa !150
  %32 = getelementptr inbounds nuw %struct.client, ptr %31, i32 0, i32 7
  %33 = load i32, ptr %32, align 4, !tbaa !205
  %34 = icmp sgt i32 %33, 2
  br i1 %34, label %35, label %38

35:                                               ; preds = %30
  %36 = load i64, ptr %5, align 8, !tbaa !31
  %37 = icmp ne i64 %36, -1
  br label %38

38:                                               ; preds = %35, %30
  %39 = phi i1 [ false, %30 ], [ %37, %35 ]
  %40 = zext i1 %39 to i32
  store i32 %40, ptr %7, align 4, !tbaa !5
  %41 = load ptr, ptr %3, align 8, !tbaa !150
  %42 = load ptr, ptr %3, align 8, !tbaa !150
  %43 = getelementptr inbounds nuw %struct.client, ptr %42, i32 0, i32 16
  %44 = load ptr, ptr %43, align 8, !tbaa !151
  %45 = getelementptr inbounds ptr, ptr %44, i64 1
  %46 = load i32, ptr %4, align 4, !tbaa !5
  %47 = load i64, ptr %5, align 8, !tbaa !31
  %48 = load i32, ptr %7, align 4, !tbaa !5
  call void @genericZpopCommand(ptr noundef %41, ptr noundef %45, i32 noundef 1, i32 noundef %46, i32 noundef 0, i64 noundef %47, i32 noundef %48, i32 noundef 0, ptr noundef null)
  call void @llvm.lifetime.end.p0(i64 4, ptr %7) #12
  store i32 0, ptr %6, align 4
  br label %49

49:                                               ; preds = %38, %29
  call void @llvm.lifetime.end.p0(i64 8, ptr %5) #12
  %50 = load i32, ptr %6, align 4
  switch i32 %50, label %52 [
    i32 0, label %51
    i32 1, label %51
  ]

51:                                               ; preds = %12, %49, %49
  ret void

52:                                               ; preds = %49
  unreachable
}