; Function Attrs: nounwind uwtable
define dso_local void @zpopMinMaxCommand(ptr noundef %0, i32 noundef %1) local_unnamed_addr #0 {
  %3 = alloca i64, align 8
  %4 = getelementptr inbounds nuw i8, ptr %0, i64 88
  %5 = load i32, ptr %4, align 8, !tbaa !147
  %6 = icmp sgt i32 %5, 3
  br i1 %6, label %7, label %9

7:                                                ; preds = %2
  %8 = load ptr, ptr getelementptr inbounds nuw (i8, ptr @shared, i64 216), align 8, !tbaa !148
  tail call void @addReplyErrorObject(ptr noundef nonnull %0, ptr noundef %8) #18
  br label %29

9:                                                ; preds = %2
  call void @llvm.lifetime.start.p0(i64 8, ptr nonnull %3) #18
  store i64 -1, ptr %3, align 8, !tbaa !26
  %10 = icmp eq i32 %5, 3
  br i1 %10, label %11, label %17

11:                                               ; preds = %9
  %12 = getelementptr inbounds nuw i8, ptr %0, i64 96
  %13 = load ptr, ptr %12, align 8, !tbaa !136
  %14 = getelementptr inbounds nuw i8, ptr %13, i64 16
  %15 = load ptr, ptr %14, align 8, !tbaa !146
  %16 = call i32 @getPositiveLongFromObjectOrReply(ptr noundef nonnull %0, ptr noundef %15, ptr noundef nonnull %3, ptr noundef null) #18
  %.not = icmp eq i32 %16, 0
  br i1 %.not, label %._crit_edge, label %28

._crit_edge:                                      ; preds = %11
  %.pre = load i64, ptr %3, align 8
  br label %17

17:                                               ; preds = %._crit_edge, %9
  %18 = phi i64 [ %.pre, %._crit_edge ], [ -1, %9 ]
  %19 = getelementptr inbounds nuw i8, ptr %0, i64 28
  %20 = load i32, ptr %19, align 4, !tbaa !185
  %21 = icmp sgt i32 %20, 2
  %22 = icmp ne i64 %18, -1
  %23 = and i1 %21, %22
  %24 = zext i1 %23 to i32
  %25 = getelementptr inbounds nuw i8, ptr %0, i64 96
  %26 = load ptr, ptr %25, align 8, !tbaa !136
  %27 = getelementptr inbounds nuw i8, ptr %26, i64 8
  call void @genericZpopCommand(ptr noundef nonnull %0, ptr noundef nonnull %27, i32 noundef 1, i32 noundef %1, i32 noundef 0, i64 noundef %18, i32 noundef %24, i32 noundef 0, ptr noundef null)
  br label %28

28:                                               ; preds = %11, %17
  call void @llvm.lifetime.end.p0(i64 8, ptr nonnull %3) #18
  br label %29

29:                                               ; preds = %28, %7
  ret void
}